; Function Attrs: inlinehint mustprogress optsize uwtable
define internal noundef nonnull ptr @"_ZZN8nanobind6detail11func_createILb0ELb1EZL32nanobind_init_test_functions_extRNS_7module_EE4$_94bJNS_6handleES5_EJLm0ELm1EEJNS_5scopeENS_4nameEEEEP7_objectOT1_PFT2_DpT3_ESt16integer_sequenceImJXspT4_EEEDpRKT5_ENUlPvPS9_PhNS_9rv_policyEPNS0_12cleanup_listEE_8__invokeESN_SO_SP_SQ_SS_"(ptr readnone captures(none) %0, ptr noundef readonly captures(none) %1, ptr readonly captures(none) %2, i32 %3, ptr readnone captures(none) %4) #15 align 2 personality ptr @__gxx_personality_v0 {
  %6 = load ptr, ptr %1, align 8, !tbaa !158
  %7 = getelementptr inbounds nuw i8, ptr %1, i64 8
  %8 = load ptr, ptr %7, align 8, !tbaa !158
  %9 = tail call i32 @PyObject_IsInstance(ptr noundef %6, ptr noundef %8) #28
  %10 = icmp eq i32 %9, -1
  br i1 %10, label %11, label %"_ZZN8nanobind6detail11func_createILb0ELb1EZL32nanobind_init_test_functions_extRNS_7module_EE4$_94bJNS_6handleES5_EJLm0ELm1EEJNS_5scopeENS_4nameEEEEP7_objectOT1_PFT2_DpT3_ESt16integer_sequenceImJXspT4_EEEDpRKT5_ENKUlPvPS9_PhNS_9rv_policyEPNS0_12cleanup_listEE_clESN_SO_SP_SQ_SS_.exit"

11:                                               ; preds = %5
  tail call void @_ZN8nanobind6detail18raise_python_errorEv() #34
  unreachable

"_ZZN8nanobind6detail11func_createILb0ELb1EZL32nanobind_init_test_functions_extRNS_7module_EE4$_94bJNS_6handleES5_EJLm0ELm1EEJNS_5scopeENS_4nameEEEEP7_objectOT1_PFT2_DpT3_ESt16integer_sequenceImJXspT4_EEEDpRKT5_ENKUlPvPS9_PhNS_9rv_policyEPNS0_12cleanup_listEE_clESN_SO_SP_SQ_SS_.exit": ; preds = %5
  %.not = icmp eq i32 %9, 0
  %12 = select i1 %.not, ptr @_Py_FalseStruct, ptr @_Py_TrueStruct
  %13 = load i64, ptr %12, align 8, !tbaa !59
  %14 = add nsw i64 %13, 1
  store i64 %14, ptr %12, align 8, !tbaa !59
  ret ptr %12
}